; ModuleID = '25/955.cpp'
source_filename = "25/955.cpp"
target datalayout = "e-m:e-p270:32:32-p271:32:32-p272:64:64-i64:64-f80:128-n8:16:32:64-S128"
target triple = "x86_64-pc-linux-gnu"

%"class.std::ios_base::Init" = type { i8 }
%"class.std::basic_istream" = type { i32 (...)**, i64, %"class.std::basic_ios" }
%"class.std::basic_ios" = type { %"class.std::ios_base", %"class.std::basic_ostream"*, i8, i8, %"class.std::basic_streambuf"*, %"class.std::ctype"*, %"class.std::num_put"*, %"class.std::num_get"* }
%"class.std::ios_base" = type { i32 (...)**, i64, i64, i32, i32, i32, %"struct.std::ios_base::_Callback_list"*, %"struct.std::ios_base::_Words", [8 x %"struct.std::ios_base::_Words"], i32, %"struct.std::ios_base::_Words"*, %"class.std::locale" }
%"struct.std::ios_base::_Callback_list" = type { %"struct.std::ios_base::_Callback_list"*, void (i32, %"class.std::ios_base"*, i32)*, i32, i32 }
%"struct.std::ios_base::_Words" = type { i8*, i64 }
%"class.std::locale" = type { %"class.std::locale::_Impl"* }
%"class.std::locale::_Impl" = type { i32, %"class.std::locale::facet"**, i64, %"class.std::locale::facet"**, i8** }
%"class.std::locale::facet" = type <{ i32 (...)**, i32, [4 x i8] }>
%"class.std::basic_ostream" = type { i32 (...)**, %"class.std::basic_ios" }
%"class.std::basic_streambuf" = type { i32 (...)**, i8*, i8*, i8*, i8*, i8*, i8*, %"class.std::locale" }
%"class.std::ctype" = type <{ %"class.std::locale::facet.base", [4 x i8], %struct.__locale_struct*, i8, [7 x i8], i32*, i32*, i16*, i8, [256 x i8], [256 x i8], i8, [6 x i8] }>
%"class.std::locale::facet.base" = type <{ i32 (...)**, i32 }>
%struct.__locale_struct = type { [13 x %struct.__locale_data*], i16*, i32*, i32*, [13 x i8*] }
%struct.__locale_data = type opaque
%"class.std::num_put" = type { %"class.std::locale::facet.base", [4 x i8] }
%"class.std::num_get" = type { %"class.std::locale::facet.base", [4 x i8] }

@_ZStL8__ioinit = internal global %"class.std::ios_base::Init" zeroinitializer, align 1
@__dso_handle = external hidden global i8
@_ZSt3cin = external dso_local global %"class.std::basic_istream", align 8
@_ZSt4cout = external dso_local global %"class.std::basic_ostream", align 8
@llvm.global_ctors = appending global [1 x { i32, void ()*, i8* }] [{ i32, void ()*, i8* } { i32 65535, void ()* @_GLOBAL__sub_I_955.cpp, i8* null }]

; Function Attrs: noinline uwtable
define internal void @__cxx_global_var_init() #0 section ".text.startup" {
  call void @_ZNSt8ios_base4InitC1Ev(%"class.std::ios_base::Init"* @_ZStL8__ioinit)
  %1 = call i32 @__cxa_atexit(void (i8*)* bitcast (void (%"class.std::ios_base::Init"*)* @_ZNSt8ios_base4InitD1Ev to void (i8*)*), i8* getelementptr inbounds (%"class.std::ios_base::Init", %"class.std::ios_base::Init"* @_ZStL8__ioinit, i32 0, i32 0), i8* @__dso_handle) #3
  ret void
}

declare dso_local void @_ZNSt8ios_base4InitC1Ev(%"class.std::ios_base::Init"*) unnamed_addr #1

; Function Attrs: nounwind
declare dso_local void @_ZNSt8ios_base4InitD1Ev(%"class.std::ios_base::Init"*) unnamed_addr #2

; Function Attrs: nounwind
declare dso_local i32 @__cxa_atexit(void (i8*)*, i8*, i8*) #3

; Function Attrs: noinline norecurse uwtable
define dso_local i32 @main() #4 {
  %1 = alloca i32, align 4
  %2 = alloca [35 x i32], align 16
  %3 = alloca i32, align 4
  %4 = alloca i32, align 4
  %5 = alloca i32, align 4
  %6 = alloca i32, align 4
  %7 = alloca [35 x i32], align 16
  store i32 0, i32* %1, align 4
  %8 = bitcast [35 x i32]* %2 to i8*
  call void @llvm.memset.p0i8.i64(i8* align 16 %8, i8 0, i64 140, i1 false)
  store i32 0, i32* %6, align 4
  %9 = bitcast [35 x i32]* %7 to i8*
  call void @llvm.memset.p0i8.i64(i8* align 16 %9, i8 0, i64 140, i1 false)
  %10 = call dereferenceable(280) %"class.std::basic_istream"* @_ZNSirsERi(%"class.std::basic_istream"* @_ZSt3cin, i32* dereferenceable(4) %3)
  %11 = getelementptr inbounds [35 x i32], [35 x i32]* %2, i64 0, i64 34
  store i32 1, i32* %11, align 8
  store i32 1, i32* %5, align 4
  br label %12

12:                                               ; preds = %73, %0
  %13 = load i32, i32* %5, align 4
  %14 = load i32, i32* %3, align 4
  %15 = icmp sle i32 %13, %14
  br i1 %15, label %16, label %76

16:                                               ; preds = %12
  store i32 34, i32* %4, align 4
  br label %17

17:                                               ; preds = %51, %16
  %18 = load i32, i32* %4, align 4
  %19 = icmp sge i32 %18, 1
  br i1 %19, label %20, label %54

20:                                               ; preds = %17
  %21 = load i32, i32* %4, align 4
  %22 = sext i32 %21 to i64
  %23 = getelementptr inbounds [35 x i32], [35 x i32]* %2, i64 0, i64 %22
  %24 = load i32, i32* %23, align 4
  %25 = mul nsw i32 %24, 2
  %26 = srem i32 %25, 10
  %27 = load i32, i32* %4, align 4
  %28 = sext i32 %27 to i64
  %29 = getelementptr inbounds [35 x i32], [35 x i32]* %7, i64 0, i64 %28
  %30 = load i32, i32* %29, align 4
  %31 = add nsw i32 %26, %30
  %32 = load i32, i32* %4, align 4
  %33 = sext i32 %32 to i64
  %34 = getelementptr inbounds [35 x i32], [35 x i32]* %7, i64 0, i64 %33
  store i32 %31, i32* %34, align 4
  %35 = load i32, i32* %4, align 4
  %36 = sext i32 %35 to i64
  %37 = getelementptr inbounds [35 x i32], [35 x i32]* %2, i64 0, i64 %36
  %38 = load i32, i32* %37, align 4
  %39 = mul nsw i32 %38, 2
  %40 = sdiv i32 %39, 10
  %41 = load i32, i32* %4, align 4
  %42 = sub nsw i32 %41, 1
  %43 = sext i32 %42 to i64
  %44 = getelementptr inbounds [35 x i32], [35 x i32]* %7, i64 0, i64 %43
  %45 = load i32, i32* %44, align 4
  %46 = add nsw i32 %40, %45
  %47 = load i32, i32* %4, align 4
  %48 = sub nsw i32 %47, 1
  %49 = sext i32 %48 to i64
  %50 = getelementptr inbounds [35 x i32], [35 x i32]* %7, i64 0, i64 %49
  store i32 %46, i32* %50, align 4
  br label %51

51:                                               ; preds = %20
  %52 = load i32, i32* %4, align 4
  %53 = add nsw i32 %52, -1
  store i32 %53, i32* %4, align 4
  br label %17

54:                                               ; preds = %17
  store i32 0, i32* %4, align 4
  br label %55

55:                                               ; preds = %69, %54
  %56 = load i32, i32* %4, align 4
  %57 = icmp sle i32 %56, 34
  br i1 %57, label %58, label %72

58:                                               ; preds = %55
  %59 = load i32, i32* %4, align 4
  %60 = sext i32 %59 to i64
  %61 = getelementptr inbounds [35 x i32], [35 x i32]* %7, i64 0, i64 %60
  %62 = load i32, i32* %61, align 4
  %63 = load i32, i32* %4, align 4
  %64 = sext i32 %63 to i64
  %65 = getelementptr inbounds [35 x i32], [35 x i32]* %2, i64 0, i64 %64
  store i32 %62, i32* %65, align 4
  %66 = load i32, i32* %4, align 4
  %67 = sext i32 %66 to i64
  %68 = getelementptr inbounds [35 x i32], [35 x i32]* %7, i64 0, i64 %67
  store i32 0, i32* %68, align 4
  br label %69

69:                                               ; preds = %58
  %70 = load i32, i32* %4, align 4
  %71 = add nsw i32 %70, 1
  store i32 %71, i32* %4, align 4
  br label %55

72:                                               ; preds = %55
  br label %73

73:                                               ; preds = %72
  %74 = load i32, i32* %5, align 4
  %75 = add nsw i32 %74, 1
  store i32 %75, i32* %5, align 4
  br label %12

76:                                               ; preds = %12
  store i32 0, i32* %4, align 4
  br label %77

77:                                               ; preds = %97, %76
  %78 = load i32, i32* %4, align 4
  %79 = icmp sle i32 %78, 34
  br i1 %79, label %80, label %100

80:                                               ; preds = %77
  %81 = load i32, i32* %4, align 4
  %82 = sext i32 %81 to i64
  %83 = getelementptr inbounds [35 x i32], [35 x i32]* %2, i64 0, i64 %82
  %84 = load i32, i32* %83, align 4
  %85 = icmp ne i32 %84, 0
  br i1 %85, label %86, label %87

86:                                               ; preds = %80
  store i32 1, i32* %6, align 4
  br label %87

87:                                               ; preds = %86, %80
  %88 = load i32, i32* %6, align 4
  %89 = icmp eq i32 %88, 1
  br i1 %89, label %90, label %96

90:                                               ; preds = %87
  %91 = load i32, i32* %4, align 4
  %92 = sext i32 %91 to i64
  %93 = getelementptr inbounds [35 x i32], [35 x i32]* %2, i64 0, i64 %92
  %94 = load i32, i32* %93, align 4
  %95 = call dereferenceable(272) %"class.std::basic_ostream"* @_ZNSolsEi(%"class.std::basic_ostream"* @_ZSt4cout, i32 %94)
  br label %96

96:                                               ; preds = %90, %87
  br label %97

97:                                               ; preds = %96
  %98 = load i32, i32* %4, align 4
  %99 = add nsw i32 %98, 1
  store i32 %99, i32* %4, align 4
  br label %77

100:                                              ; preds = %77
  ret i32 0
}

; Function Attrs: argmemonly nounwind willreturn
declare void @llvm.memset.p0i8.i64(i8* nocapture writeonly, i8, i64, i1 immarg) #5

declare dso_local dereferenceable(280) %"class.std::basic_istream"* @_ZNSirsERi(%"class.std::basic_istream"*, i32* dereferenceable(4)) #1

declare dso_local dereferenceable(272) %"class.std::basic_ostream"* @_ZNSolsEi(%"class.std::basic_ostream"*, i32) #1

; Function Attrs: noinline uwtable
define internal void @_GLOBAL__sub_I_955.cpp() #0 section ".text.startup" {
  call void @__cxx_global_var_init()
  ret void
}


!llvm.module.flags = !{!0}
!llvm.ident = !{!1}

!0 = !{i32 1, !"wchar_size", i32 4}
!1 = !{!"clang version 10.0.0-4ubuntu1 "}
